target datalayout = "e-m:e-p270:32:32-p271:32:32-p272:64:64-i64:64-i128:128-f80:128-n8:16:32:64-S128"
target triple = "x86_64-pc-linux-gnu"

%struct.browser_data = type { ptr, ptr, i32, i32, [4096 x i8] }

@.str = private unnamed_addr constant [9 x i8] c"browscap\00", align 1
@global_bdata = internal global %struct.browser_data zeroinitializer, align 8

; Function Attrs: nounwind uwtable
define hidden i32 @zm_startup_browscap(i32 noundef %0, i32 noundef %1) #0 {
  %3 = alloca i32, align 4
  %4 = alloca i32, align 4
  %5 = alloca i32, align 4
  %6 = alloca ptr, align 8
  store i32 %0, ptr %4, align 4
  store i32 %1, ptr %5, align 4
  %7 = call ptr @zend_ini_string_ex(ptr noundef @.str, i64 noundef 8, i32 noundef 0, ptr noundef null)
  store ptr %7, ptr %6, align 8
  %8 = load ptr, ptr %6, align 8
  %9 = icmp ne ptr %8, null
  br i1 %9, label %10, label %22

10:                                               ; preds = %2
  %11 = load ptr, ptr %6, align 8
  %12 = getelementptr inbounds i8, ptr %11, i64 0
  %13 = load i8, ptr %12, align 1
  %14 = sext i8 %13 to i32
  %15 = icmp ne i32 %14, 0
  br i1 %15, label %16, label %22

16:                                               ; preds = %10
  %17 = load ptr, ptr %6, align 8
  %18 = call i32 @browscap_read_file(ptr noundef %17, ptr noundef @global_bdata, i32 noundef 1)
  %19 = icmp eq i32 %18, -1
  br i1 %19, label %20, label %21

20:                                               ; preds = %16
  store i32 -1, ptr %3, align 4
  br label %23

21:                                               ; preds = %16
  br label %22

22:                                               ; preds = %21, %10, %2
  store i32 0, ptr %3, align 4
  br label %23

23:                                               ; preds = %22, %20
  %24 = load i32, ptr %3, align 4
  ret i32 %24
}