; Function Attrs: nounwind uwtable
define hidden noundef i32 @zm_startup_browscap(i32 noundef %0, i32 noundef %1) local_unnamed_addr #0 {
  %3 = tail call ptr @zend_ini_string_ex(ptr noundef nonnull @.str, i64 noundef 8, i32 noundef 0, ptr noundef null) #13
  %.not = icmp eq ptr %3, null
  br i1 %.not, label %9, label %4

4:                                                ; preds = %2
  %5 = load i8, ptr %3, align 1
  %.not4 = icmp eq i8 %5, 0
  br i1 %.not4, label %9, label %6

6:                                                ; preds = %4
  %7 = tail call fastcc i32 @browscap_read_file(ptr noundef nonnull %3, ptr noundef nonnull @global_bdata, i32 noundef 1), !range !4
  %8 = icmp eq i32 %7, -1
  br i1 %8, label %10, label %9

9:                                                ; preds = %6, %4, %2
  br label %10

10:                                               ; preds = %6, %9
  %.0 = phi i32 [ 0, %9 ], [ -1, %6 ]
  ret i32 %.0
}